; Function Attrs: mustprogress nofree norecurse nosync nounwind willreturn memory(argmem: readwrite) uwtable
define void @_ZN9Imath_3_29rgb2hsv_dERKNS_6Color4IdEE(ptr dead_on_unwind noalias writable writeonly sret(%"class.Imath_3_2::Color4") align 8 captures(none) initializes((0, 32)) %0, ptr noundef nonnull readonly align 8 captures(none) dereferenceable(32) %1) local_unnamed_addr #3 {
  %3 = getelementptr inbounds nuw i8, ptr %1, i64 8
  %4 = getelementptr inbounds nuw i8, ptr %1, i64 16
  %5 = load double, ptr %1, align 8, !tbaa !15
  %6 = load double, ptr %3, align 8, !tbaa !15
  %7 = fcmp ogt double %5, %6
  %8 = load double, ptr %4, align 8, !tbaa !15
  %. = select i1 %7, double %5, double %6
  %9 = fcmp ogt double %., %8
  %.66 = select i1 %9, double %., double %8
  %10 = fcmp olt double %5, %6
  %.sink72 = select i1 %10, double %5, double %6
  %11 = fcmp olt double %.sink72, %8
  %.68 = select i1 %11, double %.sink72, double %8
  %12 = fsub double %.66, %.68
  %13 = fcmp une double %.66, 0.000000e+00
  %14 = fdiv double %12, %.66
  %.051 = select i1 %13, double %14, double 0.000000e+00
  %15 = fcmp une double %.051, 0.000000e+00
  br i1 %15, label %16, label %35

16:                                               ; preds = %2
  %17 = fcmp oeq double %5, %.66
  br i1 %17, label %18, label %21

18:                                               ; preds = %16
  %19 = fsub double %6, %8
  %20 = fdiv double %19, %12
  br label %31

21:                                               ; preds = %16
  %22 = fcmp oeq double %6, %.66
  br i1 %22, label %23, label %27

23:                                               ; preds = %21
  %24 = fsub double %8, %5
  %25 = fdiv double %24, %12
  %26 = fadd double %25, 2.000000e+00
  br label %31

27:                                               ; preds = %21
  %28 = fsub double %5, %6
  %29 = fdiv double %28, %12
  %30 = fadd double %29, 4.000000e+00
  br label %31

31:                                               ; preds = %23, %27, %18
  %.0 = phi double [ %20, %18 ], [ %26, %23 ], [ %30, %27 ]
  %32 = fdiv double %.0, 6.000000e+00
  %33 = fcmp olt double %32, 0.000000e+00
  %34 = fadd double %32, 1.000000e+00
  %.1 = select i1 %33, double %34, double %32
  br label %35

35:                                               ; preds = %31, %2
  %.050 = phi double [ %.1, %31 ], [ 0.000000e+00, %2 ]
  %36 = getelementptr inbounds nuw i8, ptr %1, i64 24
  %37 = load double, ptr %36, align 8, !tbaa !14
  store double %.050, ptr %0, align 8, !tbaa !10
  %38 = getelementptr inbounds nuw i8, ptr %0, i64 8
  store double %.051, ptr %38, align 8, !tbaa !12
  %39 = getelementptr inbounds nuw i8, ptr %0, i64 16
  store double %.66, ptr %39, align 8, !tbaa !13
  %40 = getelementptr inbounds nuw i8, ptr %0, i64 24
  store double %37, ptr %40, align 8, !tbaa !14
  ret void
}